target datalayout = "e-m:e-p270:32:32-p271:32:32-p272:64:64-i64:64-i128:128-f80:128-n8:16:32:64-S128"
target triple = "x86_64-pc-linux-gnu"

; Function Attrs: mustprogress nounwind uwtable
define dso_local noundef i32 @_ZN8simdjson8westmere25dom_parser_implementation5parseEPKhmRNS_3dom8documentE(ptr noundef nonnull align 8 dereferenceable(88) %0, ptr noundef %1, i64 noundef %2, ptr noundef nonnull align 8 dereferenceable(24) %3) unnamed_addr #23 align 2 {
  %5 = alloca i32, align 4
  %6 = alloca ptr, align 8
  %7 = alloca ptr, align 8
  %8 = alloca i64, align 8
  %9 = alloca ptr, align 8
  %10 = alloca i32, align 4
  %11 = alloca i32, align 4
  store ptr %0, ptr %6, align 8, !tbaa !163
  store ptr %1, ptr %7, align 8, !tbaa !4
  store i64 %2, ptr %8, align 8, !tbaa !21
  store ptr %3, ptr %9, align 8, !tbaa !133
  %12 = load ptr, ptr %6, align 8
  call void @llvm.lifetime.start.p0(i64 4, ptr %10) #10
  %13 = load ptr, ptr %7, align 8, !tbaa !4
  %14 = load i64, ptr %8, align 8, !tbaa !21
  %15 = call noundef i32 @_ZN8simdjson8westmere25dom_parser_implementation6stage1EPKhmNS_11stage1_modeE(ptr noundef nonnull align 8 dereferenceable(88) %12, ptr noundef %13, i64 noundef %14, i32 noundef 0) #10
  store i32 %15, ptr %10, align 4, !tbaa !92
  %16 = load i32, ptr %10, align 4, !tbaa !92
  %17 = icmp ne i32 %16, 0
  br i1 %17, label %18, label %20

18:                                               ; preds = %4
  %19 = load i32, ptr %10, align 4, !tbaa !92
  store i32 %19, ptr %5, align 4
  store i32 1, ptr %11, align 4
  br label %23

20:                                               ; preds = %4
  %21 = load ptr, ptr %9, align 8, !tbaa !133
  %22 = call noundef i32 @_ZN8simdjson8westmere25dom_parser_implementation6stage2ERNS_3dom8documentE(ptr noundef nonnull align 8 dereferenceable(88) %12, ptr noundef nonnull align 8 dereferenceable(24) %21) #10
  store i32 %22, ptr %5, align 4
  store i32 1, ptr %11, align 4
  br label %23

23:                                               ; preds = %20, %18
  call void @llvm.lifetime.end.p0(i64 4, ptr %10) #10
  %24 = load i32, ptr %5, align 4
  ret i32 %24
}