; Function Attrs: mustprogress nounwind uwtable
define dso_local noundef range(i32 0, 25) i32 @_ZN8simdjson8westmere25dom_parser_implementation5parseEPKhmRNS_3dom8documentE(ptr noundef nonnull align 8 captures(none) dereferenceable(88) initializes((64, 80)) %0, ptr noundef %1, i64 noundef %2, ptr noundef nonnull align 8 dereferenceable(24) %3) unnamed_addr #24 align 2 {
  %5 = tail call noundef i32 @_ZN8simdjson8westmere25dom_parser_implementation6stage1EPKhmNS_11stage1_modeE(ptr noundef nonnull align 8 dereferenceable(88) %0, ptr noundef %1, i64 noundef %2, i32 noundef 0) #45
  %.not = icmp eq i32 %5, 0
  br i1 %.not, label %6, label %8

6:                                                ; preds = %4
  %7 = tail call noundef i32 @_ZN8simdjson8westmere25dom_parser_implementation6stage2ERNS_3dom8documentE(ptr noundef nonnull align 8 dereferenceable(88) %0, ptr noundef nonnull align 8 dereferenceable(24) %3) #45
  br label %8

8:                                                ; preds = %4, %6
  %.0 = phi i32 [ %7, %6 ], [ %5, %4 ]
  ret i32 %.0
}